; Function Attrs: inlinehint mustprogress nofree norecurse nosync nounwind willreturn memory(argmem: read) uwtable
define internal fastcc i64 @sdslen(ptr noundef readonly captures(none) %0) unnamed_addr #10 {
  %2 = getelementptr inbounds i8, ptr %0, i64 -1
  %3 = load i8, ptr %2, align 1, !tbaa !77
  %4 = zext i8 %3 to i32
  %5 = and i32 %4, 7
  switch i32 %5, label %24 [
    i32 0, label %6
    i32 1, label %9
    i32 2, label %13
    i32 3, label %17
    i32 4, label %21
  ]

6:                                                ; preds = %1
  %7 = lshr i32 %4, 3
  %8 = zext nneg i32 %7 to i64
  br label %24

9:                                                ; preds = %1
  %10 = getelementptr inbounds i8, ptr %0, i64 -3
  %11 = load i8, ptr %10, align 1, !tbaa !77
  %12 = zext i8 %11 to i64
  br label %24

13:                                               ; preds = %1
  %14 = getelementptr inbounds i8, ptr %0, i64 -5
  %15 = load i16, ptr %14, align 1, !tbaa !79
  %16 = zext i16 %15 to i64
  br label %24

17:                                               ; preds = %1
  %18 = getelementptr inbounds i8, ptr %0, i64 -9
  %19 = load i32, ptr %18, align 1, !tbaa !78
  %20 = zext i32 %19 to i64
  br label %24

21:                                               ; preds = %1
  %22 = getelementptr inbounds i8, ptr %0, i64 -17
  %23 = load i64, ptr %22, align 1, !tbaa !26
  br label %24

24:                                               ; preds = %1, %21, %17, %13, %9, %6
  %.0 = phi i64 [ %23, %21 ], [ %20, %17 ], [ %16, %13 ], [ %12, %9 ], [ %8, %6 ], [ 0, %1 ]
  ret i64 %.0
}